target datalayout = "e-m:e-p270:32:32-p271:32:32-p272:64:64-i64:64-i128:128-f80:128-n8:16:32:64-S128"
target triple = "x86_64-pc-linux-gnu"

%struct.pmix_object_t = type { %union.pthread_mutex_t, ptr, i32, %struct.pmix_tma }
%union.pthread_mutex_t = type { %struct.__pthread_mutex_s }
%struct.__pthread_mutex_s = type { i32, i32, i32, i32, i32, i16, i16, %struct.__pthread_internal_list }
%struct.__pthread_internal_list = type { ptr, ptr }
%struct.pmix_tma = type { ptr, ptr, ptr, ptr, ptr, ptr, ptr, ptr }
%struct.pmix_list_item_t = type { %struct.pmix_object_t, ptr, ptr, i32 }
%struct.pmix_class_t = type { ptr, ptr, ptr, ptr, i32, i32, ptr, ptr, i64 }
%struct.pmix_proc = type { [256 x i8], i32 }
%struct.prte_iof_proc_t = type { %struct.pmix_list_item_t, %struct.pmix_proc, ptr, ptr, ptr }

@.str.14 = private unnamed_addr constant [21 x i8] c"pthread_mutex_lock()\00", align 1

; Function Attrs: inlinehint nounwind uwtable
define internal void @pmix_tma_free(ptr noundef %0, ptr noundef %1) #2 {
  %3 = alloca ptr, align 8
  %4 = alloca ptr, align 8
  store ptr %0, ptr %3, align 8, !tbaa !30
  store ptr %1, ptr %4, align 8, !tbaa !16
  %5 = load ptr, ptr %3, align 8, !tbaa !30
  %6 = icmp ne ptr null, %5
  br i1 %6, label %7, label %13

7:                                                ; preds = %2
  %8 = load ptr, ptr %3, align 8, !tbaa !30
  %9 = getelementptr inbounds nuw %struct.pmix_tma, ptr %8, i32 0, i32 5
  %10 = load ptr, ptr %9, align 8, !tbaa !47
  %11 = load ptr, ptr %3, align 8, !tbaa !30
  %12 = load ptr, ptr %4, align 8, !tbaa !16
  call void %10(ptr noundef %11, ptr noundef %12)
  br label %15

13:                                               ; preds = %2
  %14 = load ptr, ptr %4, align 8, !tbaa !16
  call void @free(ptr noundef %14) #11
  br label %15

15:                                               ; preds = %13, %7
  ret void
}

; Function Attrs: inlinehint nounwind uwtable
define internal void @pmix_obj_run_destructors(ptr noundef %0) #2 {
  %2 = alloca ptr, align 8
  %3 = alloca ptr, align 8
  store ptr %0, ptr %2, align 8, !tbaa !26
  call void @llvm.lifetime.start.p0(i64 8, ptr %3) #11
  %4 = load ptr, ptr %2, align 8, !tbaa !26
  %5 = getelementptr inbounds nuw %struct.pmix_object_t, ptr %4, i32 0, i32 1
  %6 = load ptr, ptr %5, align 8, !tbaa !35
  %7 = getelementptr inbounds nuw %struct.pmix_class_t, ptr %6, i32 0, i32 7
  %8 = load ptr, ptr %7, align 8, !tbaa !44
  store ptr %8, ptr %3, align 8, !tbaa !16
  br label %9

9:                                                ; preds = %13, %1
  %10 = load ptr, ptr %3, align 8, !tbaa !16
  %11 = load ptr, ptr %10, align 8, !tbaa !16
  %12 = icmp ne ptr null, %11
  br i1 %12, label %13, label %19

13:                                               ; preds = %9
  %14 = load ptr, ptr %3, align 8, !tbaa !16
  %15 = load ptr, ptr %14, align 8, !tbaa !16
  %16 = load ptr, ptr %2, align 8, !tbaa !26
  call void %15(ptr noundef %16)
  %17 = load ptr, ptr %3, align 8, !tbaa !16
  %18 = getelementptr inbounds nuw ptr, ptr %17, i32 1
  store ptr %18, ptr %3, align 8, !tbaa !16
  br label %9, !llvm.loop !45

19:                                               ; preds = %9
  call void @llvm.lifetime.end.p0(i64 8, ptr %3) #11
  ret void
}

; Function Attrs: alwaysinline nounwind uwtable
define internal i32 @pmix_obj_update(ptr noundef %0, i32 noundef %1) #5 {
  %3 = alloca ptr, align 8
  %4 = alloca i32, align 4
  %5 = alloca i32, align 4
  store ptr %0, ptr %3, align 8, !tbaa !26
  store i32 %1, ptr %4, align 4, !tbaa !3
  call void @llvm.lifetime.start.p0(i64 4, ptr %5) #11
  %6 = load ptr, ptr %3, align 8, !tbaa !26
  %7 = getelementptr inbounds nuw %struct.pmix_object_t, ptr %6, i32 0, i32 0
  %8 = call i32 @pthread_mutex_lock(ptr noundef %7) #11
  store i32 %8, ptr %5, align 4, !tbaa !3
  %9 = load i32, ptr %5, align 4, !tbaa !3
  %10 = icmp eq i32 %9, 35
  br i1 %10, label %11, label %14

11:                                               ; preds = %2
  %12 = load i32, ptr %5, align 4, !tbaa !3
  %13 = call ptr @__errno_location() #13
  store i32 %12, ptr %13, align 4, !tbaa !3
  call void @perror(ptr noundef @.str.14)
  call void @abort() #14
  unreachable

14:                                               ; preds = %2
  %15 = load i32, ptr %4, align 4, !tbaa !3
  %16 = load ptr, ptr %3, align 8, !tbaa !26
  %17 = getelementptr inbounds nuw %struct.pmix_object_t, ptr %16, i32 0, i32 2
  %18 = load i32, ptr %17, align 8, !tbaa !36
  %19 = add nsw i32 %18, %15
  store i32 %19, ptr %17, align 8, !tbaa !36
  store i32 %19, ptr %5, align 4, !tbaa !3
  %20 = load ptr, ptr %3, align 8, !tbaa !26
  %21 = getelementptr inbounds nuw %struct.pmix_object_t, ptr %20, i32 0, i32 0
  %22 = call i32 @pthread_mutex_unlock(ptr noundef %21) #11
  %23 = load i32, ptr %5, align 4, !tbaa !3
  call void @llvm.lifetime.end.p0(i64 4, ptr %5) #11
  ret i32 %23
}

; Function Attrs: nounwind uwtable
define internal void @prte_iof_base_proc_destruct(ptr noundef %0) #0 {
  %2 = alloca ptr, align 8
  %3 = alloca ptr, align 8
  %4 = alloca ptr, align 8
  %5 = alloca ptr, align 8
  store ptr %0, ptr %2, align 8, !tbaa !16
  %6 = load ptr, ptr %2, align 8, !tbaa !16
  %7 = getelementptr inbounds nuw %struct.prte_iof_proc_t, ptr %6, i32 0, i32 2
  %8 = load ptr, ptr %7, align 8, !tbaa !48
  %9 = icmp ne ptr null, %8
  br i1 %9, label %10, label %40

10:                                               ; preds = %1
  br label %11

11:                                               ; preds = %10
  call void @llvm.lifetime.start.p0(i64 8, ptr %3) #11
  %12 = load ptr, ptr %2, align 8, !tbaa !16
  %13 = getelementptr inbounds nuw %struct.prte_iof_proc_t, ptr %12, i32 0, i32 2
  %14 = load ptr, ptr %13, align 8, !tbaa !48
  store ptr %14, ptr %3, align 8, !tbaa !26
  %15 = load ptr, ptr %3, align 8, !tbaa !26
  %16 = call i32 @pmix_obj_update(ptr noundef %15, i32 noundef -1)
  %17 = icmp eq i32 0, %16
  br i1 %17, label %18, label %38

18:                                               ; preds = %11
  %19 = load ptr, ptr %3, align 8, !tbaa !26
  call void @pmix_obj_run_destructors(ptr noundef %19)
  %20 = load ptr, ptr %3, align 8, !tbaa !26
  %21 = getelementptr inbounds nuw %struct.pmix_object_t, ptr %20, i32 0, i32 3
  %22 = getelementptr inbounds nuw %struct.pmix_tma, ptr %21, i32 0, i32 5
  %23 = load ptr, ptr %22, align 8, !tbaa !28
  %24 = icmp ne ptr null, %23
  br i1 %24, label %25, label %31

25:                                               ; preds = %18
  %26 = load ptr, ptr %3, align 8, !tbaa !26
  %27 = getelementptr inbounds nuw %struct.pmix_object_t, ptr %26, i32 0, i32 3
  %28 = load ptr, ptr %2, align 8, !tbaa !16
  %29 = getelementptr inbounds nuw %struct.prte_iof_proc_t, ptr %28, i32 0, i32 2
  %30 = load ptr, ptr %29, align 8, !tbaa !48
  call void @pmix_tma_free(ptr noundef %27, ptr noundef %30)
  br label %35

31:                                               ; preds = %18
  %32 = load ptr, ptr %2, align 8, !tbaa !16
  %33 = getelementptr inbounds nuw %struct.prte_iof_proc_t, ptr %32, i32 0, i32 2
  %34 = load ptr, ptr %33, align 8, !tbaa !48
  call void @free(ptr noundef %34) #11
  br label %35

35:                                               ; preds = %31, %25
  %36 = load ptr, ptr %2, align 8, !tbaa !16
  %37 = getelementptr inbounds nuw %struct.prte_iof_proc_t, ptr %36, i32 0, i32 2
  store ptr null, ptr %37, align 8, !tbaa !48
  br label %38

38:                                               ; preds = %35, %11
  call void @llvm.lifetime.end.p0(i64 8, ptr %3) #11
  br label %39

39:                                               ; preds = %38
  br label %40

40:                                               ; preds = %39, %1
  %41 = load ptr, ptr %2, align 8, !tbaa !16
  %42 = getelementptr inbounds nuw %struct.prte_iof_proc_t, ptr %41, i32 0, i32 3
  %43 = load ptr, ptr %42, align 8, !tbaa !52
  %44 = icmp ne ptr null, %43
  br i1 %44, label %45, label %75

45:                                               ; preds = %40
  br label %46

46:                                               ; preds = %45
  call void @llvm.lifetime.start.p0(i64 8, ptr %4) #11
  %47 = load ptr, ptr %2, align 8, !tbaa !16
  %48 = getelementptr inbounds nuw %struct.prte_iof_proc_t, ptr %47, i32 0, i32 3
  %49 = load ptr, ptr %48, align 8, !tbaa !52
  store ptr %49, ptr %4, align 8, !tbaa !26
  %50 = load ptr, ptr %4, align 8, !tbaa !26
  %51 = call i32 @pmix_obj_update(ptr noundef %50, i32 noundef -1)
  %52 = icmp eq i32 0, %51
  br i1 %52, label %53, label %73

53:                                               ; preds = %46
  %54 = load ptr, ptr %4, align 8, !tbaa !26
  call void @pmix_obj_run_destructors(ptr noundef %54)
  %55 = load ptr, ptr %4, align 8, !tbaa !26
  %56 = getelementptr inbounds nuw %struct.pmix_object_t, ptr %55, i32 0, i32 3
  %57 = getelementptr inbounds nuw %struct.pmix_tma, ptr %56, i32 0, i32 5
  %58 = load ptr, ptr %57, align 8, !tbaa !28
  %59 = icmp ne ptr null, %58
  br i1 %59, label %60, label %66

60:                                               ; preds = %53
  %61 = load ptr, ptr %4, align 8, !tbaa !26
  %62 = getelementptr inbounds nuw %struct.pmix_object_t, ptr %61, i32 0, i32 3
  %63 = load ptr, ptr %2, align 8, !tbaa !16
  %64 = getelementptr inbounds nuw %struct.prte_iof_proc_t, ptr %63, i32 0, i32 3
  %65 = load ptr, ptr %64, align 8, !tbaa !52
  call void @pmix_tma_free(ptr noundef %62, ptr noundef %65)
  br label %70

66:                                               ; preds = %53
  %67 = load ptr, ptr %2, align 8, !tbaa !16
  %68 = getelementptr inbounds nuw %struct.prte_iof_proc_t, ptr %67, i32 0, i32 3
  %69 = load ptr, ptr %68, align 8, !tbaa !52
  call void @free(ptr noundef %69) #11
  br label %70

70:                                               ; preds = %66, %60
  %71 = load ptr, ptr %2, align 8, !tbaa !16
  %72 = getelementptr inbounds nuw %struct.prte_iof_proc_t, ptr %71, i32 0, i32 3
  store ptr null, ptr %72, align 8, !tbaa !52
  br label %73

73:                                               ; preds = %70, %46
  call void @llvm.lifetime.end.p0(i64 8, ptr %4) #11
  br label %74

74:                                               ; preds = %73
  br label %75

75:                                               ; preds = %74, %40
  %76 = load ptr, ptr %2, align 8, !tbaa !16
  %77 = getelementptr inbounds nuw %struct.prte_iof_proc_t, ptr %76, i32 0, i32 4
  %78 = load ptr, ptr %77, align 8, !tbaa !53
  %79 = icmp ne ptr null, %78
  br i1 %79, label %80, label %110

80:                                               ; preds = %75
  br label %81

81:                                               ; preds = %80
  call void @llvm.lifetime.start.p0(i64 8, ptr %5) #11
  %82 = load ptr, ptr %2, align 8, !tbaa !16
  %83 = getelementptr inbounds nuw %struct.prte_iof_proc_t, ptr %82, i32 0, i32 4
  %84 = load ptr, ptr %83, align 8, !tbaa !53
  store ptr %84, ptr %5, align 8, !tbaa !26
  %85 = load ptr, ptr %5, align 8, !tbaa !26
  %86 = call i32 @pmix_obj_update(ptr noundef %85, i32 noundef -1)
  %87 = icmp eq i32 0, %86
  br i1 %87, label %88, label %108

88:                                               ; preds = %81
  %89 = load ptr, ptr %5, align 8, !tbaa !26
  call void @pmix_obj_run_destructors(ptr noundef %89)
  %90 = load ptr, ptr %5, align 8, !tbaa !26
  %91 = getelementptr inbounds nuw %struct.pmix_object_t, ptr %90, i32 0, i32 3
  %92 = getelementptr inbounds nuw %struct.pmix_tma, ptr %91, i32 0, i32 5
  %93 = load ptr, ptr %92, align 8, !tbaa !28
  %94 = icmp ne ptr null, %93
  br i1 %94, label %95, label %101

95:                                               ; preds = %88
  %96 = load ptr, ptr %5, align 8, !tbaa !26
  %97 = getelementptr inbounds nuw %struct.pmix_object_t, ptr %96, i32 0, i32 3
  %98 = load ptr, ptr %2, align 8, !tbaa !16
  %99 = getelementptr inbounds nuw %struct.prte_iof_proc_t, ptr %98, i32 0, i32 4
  %100 = load ptr, ptr %99, align 8, !tbaa !53
  call void @pmix_tma_free(ptr noundef %97, ptr noundef %100)
  br label %105

101:                                              ; preds = %88
  %102 = load ptr, ptr %2, align 8, !tbaa !16
  %103 = getelementptr inbounds nuw %struct.prte_iof_proc_t, ptr %102, i32 0, i32 4
  %104 = load ptr, ptr %103, align 8, !tbaa !53
  call void @free(ptr noundef %104) #11
  br label %105

105:                                              ; preds = %101, %95
  %106 = load ptr, ptr %2, align 8, !tbaa !16
  %107 = getelementptr inbounds nuw %struct.prte_iof_proc_t, ptr %106, i32 0, i32 4
  store ptr null, ptr %107, align 8, !tbaa !53
  br label %108

108:                                              ; preds = %105, %81
  call void @llvm.lifetime.end.p0(i64 8, ptr %5) #11
  br label %109

109:                                              ; preds = %108
  br label %110

110:                                              ; preds = %109, %75
  ret void
}