; Function Attrs: nounwind uwtable
define internal void @prte_iof_base_proc_destruct(ptr noundef captures(none) %0) #0 {
  %2 = getelementptr inbounds nuw i8, ptr %0, i64 408
  %3 = load ptr, ptr %2, align 8, !tbaa !32
  %.not = icmp eq ptr %3, null
  br i1 %.not, label %31, label %4

4:                                                ; preds = %1
  %5 = tail call i32 @pthread_mutex_lock(ptr noundef nonnull %3) #12
  %6 = icmp eq i32 %5, 35
  br i1 %6, label %7, label %pmix_obj_update.exit35

7:                                                ; preds = %4
  %8 = tail call ptr @__errno_location() #15
  store i32 35, ptr %8, align 4, !tbaa !3
  tail call void @perror(ptr noundef nonnull @.str.14) #16
  tail call void @abort() #17
  unreachable

pmix_obj_update.exit35:                           ; preds = %4
  %9 = getelementptr inbounds nuw i8, ptr %3, i64 48
  %10 = load i32, ptr %9, align 8, !tbaa !19
  %11 = add nsw i32 %10, -1
  store i32 %11, ptr %9, align 8, !tbaa !19
  %12 = tail call i32 @pthread_mutex_unlock(ptr noundef nonnull %3) #12
  %13 = icmp eq i32 %11, 0
  br i1 %13, label %14, label %31

14:                                               ; preds = %pmix_obj_update.exit35
  %15 = getelementptr inbounds nuw i8, ptr %3, i64 40
  %16 = load ptr, ptr %15, align 8, !tbaa !16
  %17 = getelementptr inbounds nuw i8, ptr %16, i64 48
  %18 = load ptr, ptr %17, align 8, !tbaa !29
  %19 = load ptr, ptr %18, align 8, !tbaa !21
  %.not6.i = icmp eq ptr %19, null
  br i1 %.not6.i, label %pmix_obj_run_destructors.exit, label %.lr.ph.i

.lr.ph.i:                                         ; preds = %14, %.lr.ph.i
  %20 = phi ptr [ %22, %.lr.ph.i ], [ %19, %14 ]
  %.07.i = phi ptr [ %21, %.lr.ph.i ], [ %18, %14 ]
  tail call void %20(ptr noundef nonnull %3) #12
  %21 = getelementptr inbounds nuw i8, ptr %.07.i, i64 8
  %22 = load ptr, ptr %21, align 8, !tbaa !21
  %.not.i = icmp eq ptr %22, null
  br i1 %.not.i, label %pmix_obj_run_destructors.exit, label %.lr.ph.i, !llvm.loop !30

pmix_obj_run_destructors.exit:                    ; preds = %.lr.ph.i, %14
  %23 = getelementptr inbounds nuw i8, ptr %3, i64 96
  %24 = load ptr, ptr %23, align 8, !tbaa !31
  %.not29 = icmp eq ptr %24, null
  br i1 %.not29, label %28, label %25

25:                                               ; preds = %pmix_obj_run_destructors.exit
  %26 = getelementptr inbounds nuw i8, ptr %3, i64 56
  %27 = load ptr, ptr %2, align 8, !tbaa !32
  tail call void %24(ptr noundef nonnull %26, ptr noundef %27) #12
  br label %30

28:                                               ; preds = %pmix_obj_run_destructors.exit
  %29 = load ptr, ptr %2, align 8, !tbaa !32
  tail call void @free(ptr noundef %29) #12
  br label %30

30:                                               ; preds = %28, %25
  store ptr null, ptr %2, align 8, !tbaa !32
  br label %31

31:                                               ; preds = %pmix_obj_update.exit35, %30, %1
  %32 = getelementptr inbounds nuw i8, ptr %0, i64 416
  %33 = load ptr, ptr %32, align 8, !tbaa !36
  %.not30 = icmp eq ptr %33, null
  br i1 %.not30, label %61, label %34

34:                                               ; preds = %31
  %35 = tail call i32 @pthread_mutex_lock(ptr noundef nonnull %33) #12
  %36 = icmp eq i32 %35, 35
  br i1 %36, label %37, label %pmix_obj_update.exit34

37:                                               ; preds = %34
  %38 = tail call ptr @__errno_location() #15
  store i32 35, ptr %38, align 4, !tbaa !3
  tail call void @perror(ptr noundef nonnull @.str.14) #16
  tail call void @abort() #17
  unreachable

pmix_obj_update.exit34:                           ; preds = %34
  %39 = getelementptr inbounds nuw i8, ptr %33, i64 48
  %40 = load i32, ptr %39, align 8, !tbaa !19
  %41 = add nsw i32 %40, -1
  store i32 %41, ptr %39, align 8, !tbaa !19
  %42 = tail call i32 @pthread_mutex_unlock(ptr noundef nonnull %33) #12
  %43 = icmp eq i32 %41, 0
  br i1 %43, label %44, label %61

44:                                               ; preds = %pmix_obj_update.exit34
  %45 = getelementptr inbounds nuw i8, ptr %33, i64 40
  %46 = load ptr, ptr %45, align 8, !tbaa !16
  %47 = getelementptr inbounds nuw i8, ptr %46, i64 48
  %48 = load ptr, ptr %47, align 8, !tbaa !29
  %49 = load ptr, ptr %48, align 8, !tbaa !21
  %.not6.i37 = icmp eq ptr %49, null
  br i1 %.not6.i37, label %pmix_obj_run_destructors.exit41, label %.lr.ph.i38

.lr.ph.i38:                                       ; preds = %44, %.lr.ph.i38
  %50 = phi ptr [ %52, %.lr.ph.i38 ], [ %49, %44 ]
  %.07.i39 = phi ptr [ %51, %.lr.ph.i38 ], [ %48, %44 ]
  tail call void %50(ptr noundef nonnull %33) #12
  %51 = getelementptr inbounds nuw i8, ptr %.07.i39, i64 8
  %52 = load ptr, ptr %51, align 8, !tbaa !21
  %.not.i40 = icmp eq ptr %52, null
  br i1 %.not.i40, label %pmix_obj_run_destructors.exit41, label %.lr.ph.i38, !llvm.loop !30

pmix_obj_run_destructors.exit41:                  ; preds = %.lr.ph.i38, %44
  %53 = getelementptr inbounds nuw i8, ptr %33, i64 96
  %54 = load ptr, ptr %53, align 8, !tbaa !31
  %.not31 = icmp eq ptr %54, null
  br i1 %.not31, label %58, label %55

55:                                               ; preds = %pmix_obj_run_destructors.exit41
  %56 = getelementptr inbounds nuw i8, ptr %33, i64 56
  %57 = load ptr, ptr %32, align 8, !tbaa !36
  tail call void %54(ptr noundef nonnull %56, ptr noundef %57) #12
  br label %60

58:                                               ; preds = %pmix_obj_run_destructors.exit41
  %59 = load ptr, ptr %32, align 8, !tbaa !36
  tail call void @free(ptr noundef %59) #12
  br label %60

60:                                               ; preds = %58, %55
  store ptr null, ptr %32, align 8, !tbaa !36
  br label %61

61:                                               ; preds = %pmix_obj_update.exit34, %60, %31
  %62 = getelementptr inbounds nuw i8, ptr %0, i64 424
  %63 = load ptr, ptr %62, align 8, !tbaa !37
  %.not32 = icmp eq ptr %63, null
  br i1 %.not32, label %91, label %64

64:                                               ; preds = %61
  %65 = tail call i32 @pthread_mutex_lock(ptr noundef nonnull %63) #12
  %66 = icmp eq i32 %65, 35
  br i1 %66, label %67, label %pmix_obj_update.exit

67:                                               ; preds = %64
  %68 = tail call ptr @__errno_location() #15
  store i32 35, ptr %68, align 4, !tbaa !3
  tail call void @perror(ptr noundef nonnull @.str.14) #16
  tail call void @abort() #17
  unreachable

pmix_obj_update.exit:                             ; preds = %64
  %69 = getelementptr inbounds nuw i8, ptr %63, i64 48
  %70 = load i32, ptr %69, align 8, !tbaa !19
  %71 = add nsw i32 %70, -1
  store i32 %71, ptr %69, align 8, !tbaa !19
  %72 = tail call i32 @pthread_mutex_unlock(ptr noundef nonnull %63) #12
  %73 = icmp eq i32 %71, 0
  br i1 %73, label %74, label %91

74:                                               ; preds = %pmix_obj_update.exit
  %75 = getelementptr inbounds nuw i8, ptr %63, i64 40
  %76 = load ptr, ptr %75, align 8, !tbaa !16
  %77 = getelementptr inbounds nuw i8, ptr %76, i64 48
  %78 = load ptr, ptr %77, align 8, !tbaa !29
  %79 = load ptr, ptr %78, align 8, !tbaa !21
  %.not6.i43 = icmp eq ptr %79, null
  br i1 %.not6.i43, label %pmix_obj_run_destructors.exit47, label %.lr.ph.i44

.lr.ph.i44:                                       ; preds = %74, %.lr.ph.i44
  %80 = phi ptr [ %82, %.lr.ph.i44 ], [ %79, %74 ]
  %.07.i45 = phi ptr [ %81, %.lr.ph.i44 ], [ %78, %74 ]
  tail call void %80(ptr noundef nonnull %63) #12
  %81 = getelementptr inbounds nuw i8, ptr %.07.i45, i64 8
  %82 = load ptr, ptr %81, align 8, !tbaa !21
  %.not.i46 = icmp eq ptr %82, null
  br i1 %.not.i46, label %pmix_obj_run_destructors.exit47, label %.lr.ph.i44, !llvm.loop !30

pmix_obj_run_destructors.exit47:                  ; preds = %.lr.ph.i44, %74
  %83 = getelementptr inbounds nuw i8, ptr %63, i64 96
  %84 = load ptr, ptr %83, align 8, !tbaa !31
  %.not33 = icmp eq ptr %84, null
  br i1 %.not33, label %88, label %85

85:                                               ; preds = %pmix_obj_run_destructors.exit47
  %86 = getelementptr inbounds nuw i8, ptr %63, i64 56
  %87 = load ptr, ptr %62, align 8, !tbaa !37
  tail call void %84(ptr noundef nonnull %86, ptr noundef %87) #12
  br label %90

88:                                               ; preds = %pmix_obj_run_destructors.exit47
  %89 = load ptr, ptr %62, align 8, !tbaa !37
  tail call void @free(ptr noundef %89) #12
  br label %90

90:                                               ; preds = %88, %85
  store ptr null, ptr %62, align 8, !tbaa !37
  br label %91

91:                                               ; preds = %pmix_obj_update.exit, %90, %61
  ret void
}